target datalayout = "e-m:e-p270:32:32-p271:32:32-p272:64:64-i64:64-i128:128-f80:128-n8:16:32:64-S128"
target triple = "x86_64-pc-linux-gnu"

%class.RtpAudioStream = type { %class.QObject, %struct._rtpstream_id, %struct._rtpstream_info, i8, %class.QList, ptr, ptr, ptr, double, double, double, double, i64, %class.AudioRouting, i8, i32, i32, i32, %class.QSet, ptr, %class.QMap, %class.QList.0, %class.QList.4, %class.QList.4, %class.QList.4, %class.QList.4, i16, i16, i32, i32, i32, double, ptr }
%class.QObject = type { ptr, %class.QScopedPointer }
%class.QScopedPointer = type { ptr }
%struct._rtpstream_id = type { %struct._address, i16, %struct._address, i16, i32 }
%struct._address = type { i32, i32, ptr, ptr }
%struct._rtpstream_info = type { %struct._rtpstream_id, i8, ptr, [256 x ptr], ptr, i32, i32, i32, i32, i32, i32, ptr, ptr, %struct.nstime_t, %struct.nstime_t, %struct.nstime_t, i16, i32, i32, %struct._tap_rtp_stat_t, i32, ptr }
%struct.nstime_t = type { i64, i32 }
%struct._tap_rtp_stat_t = type { i32, i32, i16, i64, i64, double, [300 x %struct._bw_history_item], i16, i16, i32, i32, double, double, double, double, double, double, double, double, double, double, double, double, double, double, double, double, double, double, double, i32, i16, i16, i32, i32, i32, i32, i16, i32, i32, i32 }
%struct._bw_history_item = type { double, i32 }
%class.QList = type { %struct.QArrayDataPointer }
%struct.QArrayDataPointer = type { ptr, ptr, i64 }
%class.AudioRouting = type { i8, i32 }
%class.QSet = type { %class.QHash }
%class.QHash = type { ptr }
%class.QMap = type { %"class.QtPrivate::QExplicitlySharedDataPointerV2" }
%"class.QtPrivate::QExplicitlySharedDataPointerV2" = type { ptr }
%class.QList.0 = type { %struct.QArrayDataPointer.3 }
%struct.QArrayDataPointer.3 = type { ptr, ptr, i64 }
%class.QList.4 = type { %struct.QArrayDataPointer.7 }
%struct.QArrayDataPointer.7 = type { ptr, ptr, i64 }
%class.QAudioDevice = type { %class.QExplicitlySharedDataPointer }
%class.QExplicitlySharedDataPointer = type { ptr }

; Function Attrs: mustprogress nounwind uwtable
define linkonce_odr noundef ptr @_ZNK17QArrayDataPointerIP11_rtp_packetEptEv(ptr noundef nonnull align 8 dereferenceable(24) %0) #2 comdat align 2 {
  %2 = alloca ptr, align 8
  store ptr %0, ptr %2, align 8
  %3 = load ptr, ptr %2, align 8
  ret ptr %3
}

; Function Attrs: mustprogress nounwind uwtable
define linkonce_odr noundef i64 @_ZNK5QListIP11_rtp_packetE4sizeEv(ptr noundef nonnull align 8 dereferenceable(24) %0) #2 comdat align 2 {
  %2 = alloca ptr, align 8
  store ptr %0, ptr %2, align 8
  %3 = load ptr, ptr %2, align 8
  %4 = getelementptr inbounds %class.QList, ptr %3, i32 0, i32 0
  %5 = call noundef ptr @_ZNK17QArrayDataPointerIP11_rtp_packetEptEv(ptr noundef nonnull align 8 dereferenceable(24) %4) #20
  %6 = getelementptr inbounds %struct.QArrayDataPointer, ptr %5, i32 0, i32 2
  %7 = load i64, ptr %6, align 8
  ret i64 %7
}

; Function Attrs: mustprogress uwtable
define void @_ZN14RtpAudioStream6decodeE12QAudioDevice(ptr noundef nonnull align 8 dereferenceable(7680) %0, ptr noundef %1) #0 align 2 personality ptr @__gxx_personality_v0 {
  %3 = alloca ptr, align 8
  %4 = alloca ptr, align 8
  %5 = alloca %class.QAudioDevice, align 8
  %6 = alloca ptr, align 8
  %7 = alloca i32, align 4
  store ptr %0, ptr %3, align 8
  store ptr %1, ptr %4, align 8
  %8 = load ptr, ptr %3, align 8
  %9 = getelementptr inbounds %class.RtpAudioStream, ptr %8, i32 0, i32 4
  %10 = call noundef i64 @_ZNK5QListIP11_rtp_packetE4sizeEv(ptr noundef nonnull align 8 dereferenceable(24) %9) #20
  %11 = icmp slt i64 %10, 1
  br i1 %11, label %12, label %13

12:                                               ; preds = %2
  br label %26

13:                                               ; preds = %2
  %14 = getelementptr inbounds %class.RtpAudioStream, ptr %8, i32 0, i32 5
  %15 = load ptr, ptr %14, align 8
  call void @_ZN12RtpAudioFile18setFrameWriteStageEv(ptr noundef nonnull align 8 dereferenceable(96) %15)
  call void @_ZN12QAudioDeviceC1ERKS_(ptr noundef nonnull align 8 dereferenceable(8) %5, ptr noundef nonnull align 8 dereferenceable(8) %1)
  invoke void @_ZN14RtpAudioStream11decodeAudioE12QAudioDevice(ptr noundef nonnull align 8 dereferenceable(7680) %8, ptr noundef %5)
          to label %16 unwind label %27

16:                                               ; preds = %13
  call void @_ZN12QAudioDeviceD1Ev(ptr noundef nonnull align 8 dereferenceable(8) %5) #20
  %17 = getelementptr inbounds %class.RtpAudioStream, ptr %8, i32 0, i32 5
  %18 = load ptr, ptr %17, align 8
  %19 = getelementptr inbounds %class.RtpAudioStream, ptr %8, i32 0, i32 12
  %20 = load i64, ptr %19, align 8
  call void @_ZN12RtpAudioFile17setFrameReadStageEx(ptr noundef nonnull align 8 dereferenceable(96) %18, i64 noundef %20)
  %21 = getelementptr inbounds %class.RtpAudioStream, ptr %8, i32 0, i32 19
  %22 = load ptr, ptr %21, align 8
  %23 = call i32 @speex_resampler_reset_mem(ptr noundef %22)
  call void @_ZN14RtpAudioStream12decodeVisualEv(ptr noundef nonnull align 8 dereferenceable(7680) %8)
  %24 = getelementptr inbounds %class.RtpAudioStream, ptr %8, i32 0, i32 5
  %25 = load ptr, ptr %24, align 8
  call void @_ZN12RtpAudioFile16setDataReadStageEv(ptr noundef nonnull align 8 dereferenceable(96) %25)
  br label %26

26:                                               ; preds = %16, %12
  ret void

27:                                               ; preds = %13
  %28 = landingpad { ptr, i32 }
          cleanup
  %29 = extractvalue { ptr, i32 } %28, 0
  store ptr %29, ptr %6, align 8
  %30 = extractvalue { ptr, i32 } %28, 1
  store i32 %30, ptr %7, align 4
  call void @_ZN12QAudioDeviceD1Ev(ptr noundef nonnull align 8 dereferenceable(8) %5) #20
  br label %31

31:                                               ; preds = %27
  %32 = load ptr, ptr %6, align 8
  %33 = load i32, ptr %7, align 4
  %34 = insertvalue { ptr, i32 } poison, ptr %32, 0
  %35 = insertvalue { ptr, i32 } %34, i32 %33, 1
  resume { ptr, i32 } %35
}