; Function Attrs: mustprogress uwtable
define void @_ZN14RtpAudioStream6decodeE12QAudioDevice(ptr noundef nonnull align 8 dereferenceable(7680) %0, ptr noundef %1) local_unnamed_addr #0 align 2 personality ptr @__gxx_personality_v0 {
  %3 = alloca %class.QAudioDevice, align 8
  %4 = getelementptr inbounds i8, ptr %0, i64 7408
  %5 = load i64, ptr %4, align 8
  %6 = icmp slt i64 %5, 1
  br i1 %6, label %18, label %7

7:                                                ; preds = %2
  %8 = getelementptr inbounds i8, ptr %0, i64 7416
  %9 = load ptr, ptr %8, align 8
  tail call void @_ZN12RtpAudioFile18setFrameWriteStageEv(ptr noundef nonnull align 8 dereferenceable(96) %9)
  call void @_ZN12QAudioDeviceC1ERKS_(ptr noundef nonnull align 8 dereferenceable(8) %3, ptr noundef nonnull align 8 dereferenceable(8) %1)
  invoke void @_ZN14RtpAudioStream11decodeAudioE12QAudioDevice(ptr noundef nonnull align 8 dereferenceable(7680) %0, ptr noundef nonnull %3)
          to label %10 unwind label %19

10:                                               ; preds = %7
  call void @_ZN12QAudioDeviceD1Ev(ptr noundef nonnull align 8 dereferenceable(8) %3) #25
  %11 = load ptr, ptr %8, align 8
  %12 = getelementptr inbounds i8, ptr %0, i64 7472
  %13 = load i64, ptr %12, align 8
  call void @_ZN12RtpAudioFile17setFrameReadStageEx(ptr noundef nonnull align 8 dereferenceable(96) %11, i64 noundef %13)
  %14 = getelementptr inbounds i8, ptr %0, i64 7512
  %15 = load ptr, ptr %14, align 8
  %16 = call i32 @speex_resampler_reset_mem(ptr noundef %15)
  call void @_ZN14RtpAudioStream12decodeVisualEv(ptr noundef nonnull align 8 dereferenceable(7680) %0)
  %17 = load ptr, ptr %8, align 8
  call void @_ZN12RtpAudioFile16setDataReadStageEv(ptr noundef nonnull align 8 dereferenceable(96) %17)
  br label %18

18:                                               ; preds = %2, %10
  ret void

19:                                               ; preds = %7
  %20 = landingpad { ptr, i32 }
          cleanup
  call void @_ZN12QAudioDeviceD1Ev(ptr noundef nonnull align 8 dereferenceable(8) %3) #25
  resume { ptr, i32 } %20
}